; ModuleID = '4/184.c'
source_filename = "4/184.c"
target datalayout = "e-m:e-p270:32:32-p271:32:32-p272:64:64-i64:64-f80:128-n8:16:32:64-S128"
target triple = "x86_64-pc-linux-gnu"

@.str = private unnamed_addr constant [5 x i8] c"%d%d\00", align 1
@.str.1 = private unnamed_addr constant [3 x i8] c"%d\00", align 1
@.str.2 = private unnamed_addr constant [4 x i8] c"%d\0A\00", align 1

; Function Attrs: noinline nounwind uwtable
define dso_local void @main() #0 {
  %1 = alloca [100 x [100 x i32]], align 16
  %2 = alloca i32, align 4
  %3 = alloca i32, align 4
  %4 = alloca i32, align 4
  %5 = alloca i32, align 4
  %6 = alloca i32, align 4
  %7 = alloca i32, align 4
  %8 = alloca i32, align 4
  %9 = alloca i32, align 4
  %10 = call i32 (i8*, ...) @__isoc99_scanf(i8* getelementptr inbounds ([5 x i8], [5 x i8]* @.str, i64 0, i64 0), i32* %9, i32* %8)
  store i32 0, i32* %2, align 4
  br label %11

11:                                               ; preds = %32, %0
  %12 = load i32, i32* %2, align 4
  %13 = load i32, i32* %9, align 4
  %14 = icmp slt i32 %12, %13
  br i1 %14, label %15, label %35

15:                                               ; preds = %11
  store i32 0, i32* %3, align 4
  br label %16

16:                                               ; preds = %28, %15
  %17 = load i32, i32* %3, align 4
  %18 = load i32, i32* %8, align 4
  %19 = icmp slt i32 %17, %18
  br i1 %19, label %20, label %31

20:                                               ; preds = %16
  %21 = load i32, i32* %2, align 4
  %22 = sext i32 %21 to i64
  %23 = getelementptr inbounds [100 x [100 x i32]], [100 x [100 x i32]]* %1, i64 0, i64 %22
  %24 = load i32, i32* %3, align 4
  %25 = sext i32 %24 to i64
  %26 = getelementptr inbounds [100 x i32], [100 x i32]* %23, i64 0, i64 %25
  %27 = call i32 (i8*, ...) @__isoc99_scanf(i8* getelementptr inbounds ([3 x i8], [3 x i8]* @.str.1, i64 0, i64 0), i32* %26)
  br label %28

28:                                               ; preds = %20
  %29 = load i32, i32* %3, align 4
  %30 = add nsw i32 %29, 1
  store i32 %30, i32* %3, align 4
  br label %16

31:                                               ; preds = %16
  br label %32

32:                                               ; preds = %31
  %33 = load i32, i32* %2, align 4
  %34 = add nsw i32 %33, 1
  store i32 %34, i32* %2, align 4
  br label %11

35:                                               ; preds = %11
  %36 = load i32, i32* %8, align 4
  %37 = load i32, i32* %9, align 4
  %38 = icmp sge i32 %36, %37
  br i1 %38, label %39, label %107

39:                                               ; preds = %35
  store i32 0, i32* %4, align 4
  br label %40

40:                                               ; preds = %70, %39
  %41 = load i32, i32* %4, align 4
  %42 = load i32, i32* %8, align 4
  %43 = icmp slt i32 %41, %42
  br i1 %43, label %44, label %73

44:                                               ; preds = %40
  store i32 0, i32* %5, align 4
  br label %45

45:                                               ; preds = %66, %44
  %46 = load i32, i32* %5, align 4
  %47 = load i32, i32* %9, align 4
  %48 = icmp slt i32 %46, %47
  br i1 %48, label %49, label %53

49:                                               ; preds = %45
  %50 = load i32, i32* %5, align 4
  %51 = load i32, i32* %4, align 4
  %52 = icmp sle i32 %50, %51
  br label %53

53:                                               ; preds = %49, %45
  %54 = phi i1 [ false, %45 ], [ %52, %49 ]
  br i1 %54, label %55, label %69

55:                                               ; preds = %53
  %56 = load i32, i32* %5, align 4
  %57 = sext i32 %56 to i64
  %58 = getelementptr inbounds [100 x [100 x i32]], [100 x [100 x i32]]* %1, i64 0, i64 %57
  %59 = load i32, i32* %4, align 4
  %60 = load i32, i32* %5, align 4
  %61 = sub nsw i32 %59, %60
  %62 = sext i32 %61 to i64
  %63 = getelementptr inbounds [100 x i32], [100 x i32]* %58, i64 0, i64 %62
  %64 = load i32, i32* %63, align 4
  %65 = call i32 (i8*, ...) @printf(i8* getelementptr inbounds ([4 x i8], [4 x i8]* @.str.2, i64 0, i64 0), i32 %64)
  br label %66

66:                                               ; preds = %55
  %67 = load i32, i32* %5, align 4
  %68 = add nsw i32 %67, 1
  store i32 %68, i32* %5, align 4
  br label %45

69:                                               ; preds = %53
  br label %70

70:                                               ; preds = %69
  %71 = load i32, i32* %4, align 4
  %72 = add nsw i32 %71, 1
  store i32 %72, i32* %4, align 4
  br label %40

73:                                               ; preds = %40
  store i32 1, i32* %6, align 4
  br label %74

74:                                               ; preds = %103, %73
  %75 = load i32, i32* %6, align 4
  %76 = load i32, i32* %9, align 4
  %77 = icmp slt i32 %75, %76
  br i1 %77, label %78, label %106

78:                                               ; preds = %74
  store i32 0, i32* %7, align 4
  br label %79

79:                                               ; preds = %99, %78
  %80 = load i32, i32* %7, align 4
  %81 = load i32, i32* %9, align 4
  %82 = load i32, i32* %6, align 4
  %83 = sub nsw i32 %81, %82
  %84 = icmp slt i32 %80, %83
  br i1 %84, label %85, label %102

85:                                               ; preds = %79
  %86 = load i32, i32* %6, align 4
  %87 = load i32, i32* %7, align 4
  %88 = add nsw i32 %86, %87
  %89 = sext i32 %88 to i64
  %90 = getelementptr inbounds [100 x [100 x i32]], [100 x [100 x i32]]* %1, i64 0, i64 %89
  %91 = load i32, i32* %8, align 4
  %92 = sub nsw i32 %91, 1
  %93 = load i32, i32* %7, align 4
  %94 = sub nsw i32 %92, %93
  %95 = sext i32 %94 to i64
  %96 = getelementptr inbounds [100 x i32], [100 x i32]* %90, i64 0, i64 %95
  %97 = load i32, i32* %96, align 4
  %98 = call i32 (i8*, ...) @printf(i8* getelementptr inbounds ([4 x i8], [4 x i8]* @.str.2, i64 0, i64 0), i32 %97)
  br label %99

99:                                               ; preds = %85
  %100 = load i32, i32* %7, align 4
  %101 = add nsw i32 %100, 1
  store i32 %101, i32* %7, align 4
  br label %79

102:                                              ; preds = %79
  br label %103

103:                                              ; preds = %102
  %104 = load i32, i32* %6, align 4
  %105 = add nsw i32 %104, 1
  store i32 %105, i32* %6, align 4
  br label %74

106:                                              ; preds = %74
  br label %181

107:                                              ; preds = %35
  store i32 0, i32* %4, align 4
  br label %108

108:                                              ; preds = %138, %107
  %109 = load i32, i32* %4, align 4
  %110 = load i32, i32* %8, align 4
  %111 = icmp slt i32 %109, %110
  br i1 %111, label %112, label %141

112:                                              ; preds = %108
  store i32 0, i32* %5, align 4
  br label %113

113:                                              ; preds = %134, %112
  %114 = load i32, i32* %5, align 4
  %115 = load i32, i32* %9, align 4
  %116 = icmp slt i32 %114, %115
  br i1 %116, label %117, label %121

117:                                              ; preds = %113
  %118 = load i32, i32* %5, align 4
  %119 = load i32, i32* %4, align 4
  %120 = icmp sle i32 %118, %119
  br label %121

121:                                              ; preds = %117, %113
  %122 = phi i1 [ false, %113 ], [ %120, %117 ]
  br i1 %122, label %123, label %137

123:                                              ; preds = %121
  %124 = load i32, i32* %5, align 4
  %125 = sext i32 %124 to i64
  %126 = getelementptr inbounds [100 x [100 x i32]], [100 x [100 x i32]]* %1, i64 0, i64 %125
  %127 = load i32, i32* %4, align 4
  %128 = load i32, i32* %5, align 4
  %129 = sub nsw i32 %127, %128
  %130 = sext i32 %129 to i64
  %131 = getelementptr inbounds [100 x i32], [100 x i32]* %126, i64 0, i64 %130
  %132 = load i32, i32* %131, align 4
  %133 = call i32 (i8*, ...) @printf(i8* getelementptr inbounds ([4 x i8], [4 x i8]* @.str.2, i64 0, i64 0), i32 %132)
  br label %134

134:                                              ; preds = %123
  %135 = load i32, i32* %5, align 4
  %136 = add nsw i32 %135, 1
  store i32 %136, i32* %5, align 4
  br label %113

137:                                              ; preds = %121
  br label %138

138:                                              ; preds = %137
  %139 = load i32, i32* %4, align 4
  %140 = add nsw i32 %139, 1
  store i32 %140, i32* %4, align 4
  br label %108

141:                                              ; preds = %108
  store i32 1, i32* %6, align 4
  br label %142

142:                                              ; preds = %177, %141
  %143 = load i32, i32* %6, align 4
  %144 = load i32, i32* %9, align 4
  %145 = icmp slt i32 %143, %144
  br i1 %145, label %146, label %180

146:                                              ; preds = %142
  store i32 0, i32* %7, align 4
  br label %147

147:                                              ; preds = %173, %146
  %148 = load i32, i32* %7, align 4
  %149 = load i32, i32* %9, align 4
  %150 = load i32, i32* %6, align 4
  %151 = sub nsw i32 %149, %150
  %152 = icmp slt i32 %148, %151
  br i1 %152, label %153, label %157

153:                                              ; preds = %147
  %154 = load i32, i32* %7, align 4
  %155 = load i32, i32* %8, align 4
  %156 = icmp slt i32 %154, %155
  br label %157

157:                                              ; preds = %153, %147
  %158 = phi i1 [ false, %147 ], [ %156, %153 ]
  br i1 %158, label %159, label %176

159:                                              ; preds = %157
  %160 = load i32, i32* %6, align 4
  %161 = load i32, i32* %7, align 4
  %162 = add nsw i32 %160, %161
  %163 = sext i32 %162 to i64
  %164 = getelementptr inbounds [100 x [100 x i32]], [100 x [100 x i32]]* %1, i64 0, i64 %163
  %165 = load i32, i32* %8, align 4
  %166 = sub nsw i32 %165, 1
  %167 = load i32, i32* %7, align 4
  %168 = sub nsw i32 %166, %167
  %169 = sext i32 %168 to i64
  %170 = getelementptr inbounds [100 x i32], [100 x i32]* %164, i64 0, i64 %169
  %171 = load i32, i32* %170, align 4
  %172 = call i32 (i8*, ...) @printf(i8* getelementptr inbounds ([4 x i8], [4 x i8]* @.str.2, i64 0, i64 0), i32 %171)
  br label %173

173:                                              ; preds = %159
  %174 = load i32, i32* %7, align 4
  %175 = add nsw i32 %174, 1
  store i32 %175, i32* %7, align 4
  br label %147

176:                                              ; preds = %157
  br label %177

177:                                              ; preds = %176
  %178 = load i32, i32* %6, align 4
  %179 = add nsw i32 %178, 1
  store i32 %179, i32* %6, align 4
  br label %142

180:                                              ; preds = %142
  br label %181

181:                                              ; preds = %180, %106
  ret void
}

declare dso_local i32 @__isoc99_scanf(i8*, ...) #1

declare dso_local i32 @printf(i8*, ...) #1


!llvm.module.flags = !{!0}
!llvm.ident = !{!1}

!0 = !{i32 1, !"wchar_size", i32 4}
!1 = !{!"clang version 10.0.0-4ubuntu1 "}
